target datalayout = "e-m:e-p270:32:32-p271:32:32-p272:64:64-i64:64-i128:128-f80:128-n8:16:32:64-S128"
target triple = "x86_64-pc-linux-gnu"

@hf_mpls_pm_version = internal global i32 0, align 4
@hf_mpls_pm_flags = internal global i32 0, align 4
@hf_mpls_pm_flags_r = internal global i32 0, align 4
@hf_mpls_pm_flags_t = internal global i32 0, align 4
@hf_mpls_pm_flags_res = internal global i32 0, align 4
@hf_mpls_pm_query_ctrl_code = internal global i32 0, align 4
@hf_mpls_pm_response_ctrl_code = internal global i32 0, align 4
@hf_mpls_pm_length = internal global i32 0, align 4
@hf_mpls_pm_dflags = internal global i32 0, align 4
@hf_mpls_pm_dflags_x = internal global i32 0, align 4
@hf_mpls_pm_dflags_b = internal global i32 0, align 4
@hf_mpls_pm_dflags_res = internal global i32 0, align 4
@hf_mpls_pm_otf = internal global i32 0, align 4
@hf_mpls_pm_session_id = internal global i32 0, align 4
@hf_mpls_pm_ds = internal global i32 0, align 4
@hf_mpls_pm_origin_timestamp_null = internal global i32 0, align 4
@hf_mpls_pm_origin_timestamp_seq = internal global i32 0, align 4
@hf_mpls_pm_origin_timestamp_ntp = internal global i32 0, align 4
@hf_mpls_pm_origin_timestamp_ptp = internal global i32 0, align 4
@hf_mpls_pm_origin_timestamp_unk = internal global i32 0, align 4
@ett_mpls_pm = internal global i32 0, align 4
@ett_mpls_pm_flags = internal global i32 0, align 4
@ett_mpls_pm_dflags = internal global i32 0, align 4
@proto_mpls_pm_dlm = internal global i32 0, align 4
@proto_mpls_pm_ilm = internal global i32 0, align 4
@.str.121 = private unnamed_addr constant [1 x i8] zeroinitializer, align 1

; Function Attrs: null_pointer_is_valid sspstrong uwtable
define internal void @dissect_mpls_pm_loss(ptr noundef %0, ptr noundef %1, ptr noundef %2, i8 noundef zeroext %3) #0 {
  %5 = alloca ptr, align 8
  %6 = alloca ptr, align 8
  %7 = alloca ptr, align 8
  %8 = alloca i8, align 1
  %9 = alloca ptr, align 8
  %10 = alloca ptr, align 8
  %11 = alloca ptr, align 8
  %12 = alloca ptr, align 8
  %13 = alloca i32, align 4
  %14 = alloca i8, align 1
  %15 = alloca i8, align 1
  %16 = alloca i8, align 1
  %17 = alloca i32, align 4
  %18 = alloca i8, align 1
  %19 = alloca i8, align 1
  %20 = alloca i8, align 1
  %21 = alloca i8, align 1
  %22 = alloca i32, align 4
  store ptr %0, ptr %5, align 8
  store ptr %1, ptr %6, align 8
  store ptr %2, ptr %7, align 8
  store i8 %3, ptr %8, align 1
  call void @llvm.lifetime.start.p0(i64 8, ptr %9) #3
  store ptr null, ptr %9, align 8
  call void @llvm.lifetime.start.p0(i64 8, ptr %10) #3
  call void @llvm.lifetime.start.p0(i64 8, ptr %11) #3
  call void @llvm.lifetime.start.p0(i64 8, ptr %12) #3
  call void @llvm.lifetime.start.p0(i64 4, ptr %13) #3
  store i32 0, ptr %13, align 4
  call void @llvm.lifetime.start.p0(i64 1, ptr %14) #3
  store i8 0, ptr %14, align 1
  call void @llvm.lifetime.start.p0(i64 1, ptr %15) #3
  store i8 0, ptr %15, align 1
  call void @llvm.lifetime.start.p0(i64 1, ptr %16) #3
  store i8 0, ptr %16, align 1
  call void @llvm.lifetime.start.p0(i64 4, ptr %17) #3
  store i32 0, ptr %17, align 4
  call void @llvm.lifetime.start.p0(i64 1, ptr %18) #3
  store i8 0, ptr %18, align 1
  call void @llvm.lifetime.start.p0(i64 1, ptr %19) #3
  call void @llvm.lifetime.start.p0(i64 1, ptr %20) #3
  call void @llvm.lifetime.start.p0(i64 1, ptr %21) #3
  %23 = load ptr, ptr %5, align 8
  %24 = load ptr, ptr %6, align 8
  %25 = load i8, ptr %8, align 1
  %26 = zext i8 %25 to i32
  %27 = call ptr @val_to_str_const(i32 noundef %26, ptr noundef @pmt_vals, ptr noundef @.str.121)
  call void @mpls_pm_build_cinfo(ptr noundef %23, ptr noundef %24, ptr noundef %27, ptr noundef %14, ptr noundef %15, ptr noundef %16, ptr noundef %17, ptr noundef %18)
  %28 = load ptr, ptr %7, align 8
  %29 = icmp ne ptr %28, null
  br i1 %29, label %31, label %30

30:                                               ; preds = %4
  store i32 1, ptr %22, align 4
  br label %222

31:                                               ; preds = %4
  %32 = load i8, ptr %8, align 1
  %33 = zext i8 %32 to i32
  %34 = icmp eq i32 %33, 1
  br i1 %34, label %35, label %40

35:                                               ; preds = %31
  %36 = load ptr, ptr %7, align 8
  %37 = load i32, ptr @proto_mpls_pm_dlm, align 4
  %38 = load ptr, ptr %5, align 8
  %39 = call ptr @proto_tree_add_item(ptr noundef %36, i32 noundef %37, ptr noundef %38, i32 noundef 0, i32 noundef -1, i32 noundef 0)
  store ptr %39, ptr %9, align 8
  br label %45

40:                                               ; preds = %31
  %41 = load ptr, ptr %7, align 8
  %42 = load i32, ptr @proto_mpls_pm_ilm, align 4
  %43 = load ptr, ptr %5, align 8
  %44 = call ptr @proto_tree_add_item(ptr noundef %41, i32 noundef %42, ptr noundef %43, i32 noundef 0, i32 noundef -1, i32 noundef 0)
  store ptr %44, ptr %9, align 8
  br label %45

45:                                               ; preds = %40, %35
  %46 = load ptr, ptr %9, align 8
  %47 = load i32, ptr @ett_mpls_pm, align 4
  %48 = call ptr @proto_item_add_subtree(ptr noundef %46, i32 noundef %47)
  store ptr %48, ptr %10, align 8
  %49 = load ptr, ptr %10, align 8
  %50 = load i32, ptr @hf_mpls_pm_version, align 4
  %51 = load ptr, ptr %5, align 8
  %52 = load i32, ptr %13, align 4
  %53 = call ptr @proto_tree_add_item(ptr noundef %49, i32 noundef %50, ptr noundef %51, i32 noundef %52, i32 noundef 1, i32 noundef 0)
  %54 = load ptr, ptr %10, align 8
  %55 = load i32, ptr @hf_mpls_pm_flags, align 4
  %56 = load ptr, ptr %5, align 8
  %57 = load i32, ptr %13, align 4
  %58 = call ptr @proto_tree_add_item(ptr noundef %54, i32 noundef %55, ptr noundef %56, i32 noundef %57, i32 noundef 1, i32 noundef 0)
  store ptr %58, ptr %9, align 8
  %59 = load ptr, ptr %9, align 8
  %60 = load i32, ptr @ett_mpls_pm_flags, align 4
  %61 = call ptr @proto_item_add_subtree(ptr noundef %59, i32 noundef %60)
  store ptr %61, ptr %11, align 8
  %62 = load ptr, ptr %11, align 8
  %63 = load i32, ptr @hf_mpls_pm_flags_r, align 4
  %64 = load ptr, ptr %5, align 8
  %65 = load i32, ptr %13, align 4
  %66 = call ptr @proto_tree_add_item(ptr noundef %62, i32 noundef %63, ptr noundef %64, i32 noundef %65, i32 noundef 1, i32 noundef 0)
  %67 = load ptr, ptr %11, align 8
  %68 = load i32, ptr @hf_mpls_pm_flags_t, align 4
  %69 = load ptr, ptr %5, align 8
  %70 = load i32, ptr %13, align 4
  %71 = call ptr @proto_tree_add_item(ptr noundef %67, i32 noundef %68, ptr noundef %69, i32 noundef %70, i32 noundef 1, i32 noundef 0)
  %72 = load ptr, ptr %11, align 8
  %73 = load i32, ptr @hf_mpls_pm_flags_res, align 4
  %74 = load ptr, ptr %5, align 8
  %75 = load i32, ptr %13, align 4
  %76 = call ptr @proto_tree_add_item(ptr noundef %72, i32 noundef %73, ptr noundef %74, i32 noundef %75, i32 noundef 1, i32 noundef 0)
  %77 = load i32, ptr %13, align 4
  %78 = add i32 %77, 1
  store i32 %78, ptr %13, align 4
  %79 = load i8, ptr %14, align 1, !range !6, !noundef !7
  %80 = trunc i8 %79 to i1
  br i1 %80, label %81, label %87

81:                                               ; preds = %45
  %82 = load ptr, ptr %10, align 8
  %83 = load i32, ptr @hf_mpls_pm_query_ctrl_code, align 4
  %84 = load ptr, ptr %5, align 8
  %85 = load i32, ptr %13, align 4
  %86 = call ptr @proto_tree_add_item(ptr noundef %82, i32 noundef %83, ptr noundef %84, i32 noundef %85, i32 noundef 1, i32 noundef 0)
  br label %93

87:                                               ; preds = %45
  %88 = load ptr, ptr %10, align 8
  %89 = load i32, ptr @hf_mpls_pm_response_ctrl_code, align 4
  %90 = load ptr, ptr %5, align 8
  %91 = load i32, ptr %13, align 4
  %92 = call ptr @proto_tree_add_item(ptr noundef %88, i32 noundef %89, ptr noundef %90, i32 noundef %91, i32 noundef 1, i32 noundef 0)
  br label %93

93:                                               ; preds = %87, %81
  %94 = load i32, ptr %13, align 4
  %95 = add i32 %94, 1
  store i32 %95, ptr %13, align 4
  %96 = load ptr, ptr %10, align 8
  %97 = load i32, ptr @hf_mpls_pm_length, align 4
  %98 = load ptr, ptr %5, align 8
  %99 = load i32, ptr %13, align 4
  %100 = call ptr @proto_tree_add_item(ptr noundef %96, i32 noundef %97, ptr noundef %98, i32 noundef %99, i32 noundef 2, i32 noundef 0)
  %101 = load i32, ptr %13, align 4
  %102 = add i32 %101, 2
  store i32 %102, ptr %13, align 4
  %103 = load ptr, ptr %10, align 8
  %104 = load i32, ptr @hf_mpls_pm_dflags, align 4
  %105 = load ptr, ptr %5, align 8
  %106 = load i32, ptr %13, align 4
  %107 = call ptr @proto_tree_add_item(ptr noundef %103, i32 noundef %104, ptr noundef %105, i32 noundef %106, i32 noundef 1, i32 noundef 0)
  store ptr %107, ptr %9, align 8
  %108 = load ptr, ptr %9, align 8
  %109 = load i32, ptr @ett_mpls_pm_dflags, align 4
  %110 = call ptr @proto_item_add_subtree(ptr noundef %108, i32 noundef %109)
  store ptr %110, ptr %12, align 8
  %111 = load ptr, ptr %12, align 8
  %112 = load i32, ptr @hf_mpls_pm_dflags_x, align 4
  %113 = load ptr, ptr %5, align 8
  %114 = load i32, ptr %13, align 4
  %115 = call ptr @proto_tree_add_item(ptr noundef %111, i32 noundef %112, ptr noundef %113, i32 noundef %114, i32 noundef 1, i32 noundef 0)
  %116 = load ptr, ptr %5, align 8
  %117 = load i32, ptr %13, align 4
  %118 = call zeroext i8 @tvb_get_uint8(ptr noundef %116, i32 noundef %117)
  %119 = zext i8 %118 to i32
  %120 = and i32 %119, 64
  %121 = icmp ne i32 %120, 0
  %122 = select i1 %121, i32 1, i32 0
  %123 = icmp ne i32 %122, 0
  %124 = zext i1 %123 to i8
  store i8 %124, ptr %20, align 1
  %125 = load ptr, ptr %12, align 8
  %126 = load i32, ptr @hf_mpls_pm_dflags_b, align 4
  %127 = load ptr, ptr %5, align 8
  %128 = load i32, ptr %13, align 4
  %129 = call ptr @proto_tree_add_item(ptr noundef %125, i32 noundef %126, ptr noundef %127, i32 noundef %128, i32 noundef 1, i32 noundef 0)
  %130 = load ptr, ptr %12, align 8
  %131 = load i32, ptr @hf_mpls_pm_dflags_res, align 4
  %132 = load ptr, ptr %5, align 8
  %133 = load i32, ptr %13, align 4
  %134 = call ptr @proto_tree_add_item(ptr noundef %130, i32 noundef %131, ptr noundef %132, i32 noundef %133, i32 noundef 1, i32 noundef 0)
  %135 = load ptr, ptr %5, align 8
  %136 = load i32, ptr %13, align 4
  %137 = call zeroext i8 @tvb_get_uint8(ptr noundef %135, i32 noundef %136)
  %138 = zext i8 %137 to i32
  %139 = and i32 %138, 15
  %140 = trunc i32 %139 to i8
  store i8 %140, ptr %19, align 1
  %141 = load ptr, ptr %10, align 8
  %142 = load i32, ptr @hf_mpls_pm_otf, align 4
  %143 = load ptr, ptr %5, align 8
  %144 = load i32, ptr %13, align 4
  %145 = call ptr @proto_tree_add_item(ptr noundef %141, i32 noundef %142, ptr noundef %143, i32 noundef %144, i32 noundef 1, i32 noundef 0)
  %146 = load i32, ptr %13, align 4
  %147 = add i32 %146, 1
  store i32 %147, ptr %13, align 4
  %148 = load i32, ptr %13, align 4
  %149 = add i32 %148, 3
  store i32 %149, ptr %13, align 4
  %150 = load ptr, ptr %10, align 8
  %151 = load i32, ptr @hf_mpls_pm_session_id, align 4
  %152 = load ptr, ptr %5, align 8
  %153 = load i32, ptr %13, align 4
  %154 = load i32, ptr %17, align 4
  %155 = call ptr @proto_tree_add_uint(ptr noundef %150, i32 noundef %151, ptr noundef %152, i32 noundef %153, i32 noundef 4, i32 noundef %154)
  %156 = load i8, ptr %16, align 1, !range !6, !noundef !7
  %157 = trunc i8 %156 to i1
  br i1 %157, label %158, label %165

158:                                              ; preds = %93
  %159 = load ptr, ptr %10, align 8
  %160 = load i32, ptr @hf_mpls_pm_ds, align 4
  %161 = load ptr, ptr %5, align 8
  %162 = load i32, ptr %13, align 4
  %163 = add i32 %162, 3
  %164 = call ptr @proto_tree_add_item(ptr noundef %159, i32 noundef %160, ptr noundef %161, i32 noundef %163, i32 noundef 1, i32 noundef 0)
  br label %165

165:                                              ; preds = %158, %93
  %166 = load i32, ptr %13, align 4
  %167 = add i32 %166, 4
  store i32 %167, ptr %13, align 4
  %168 = load i8, ptr %19, align 1
  %169 = zext i8 %168 to i32
  switch i32 %169, label %194 [
    i32 0, label %170
    i32 1, label %176
    i32 2, label %182
    i32 3, label %188
  ]

170:                                              ; preds = %165
  %171 = load ptr, ptr %10, align 8
  %172 = load i32, ptr @hf_mpls_pm_origin_timestamp_null, align 4
  %173 = load ptr, ptr %5, align 8
  %174 = load i32, ptr %13, align 4
  %175 = call ptr @proto_tree_add_item(ptr noundef %171, i32 noundef %172, ptr noundef %173, i32 noundef %174, i32 noundef 8, i32 noundef 0)
  br label %200

176:                                              ; preds = %165
  %177 = load ptr, ptr %10, align 8
  %178 = load i32, ptr @hf_mpls_pm_origin_timestamp_seq, align 4
  %179 = load ptr, ptr %5, align 8
  %180 = load i32, ptr %13, align 4
  %181 = call ptr @proto_tree_add_item(ptr noundef %177, i32 noundef %178, ptr noundef %179, i32 noundef %180, i32 noundef 8, i32 noundef 0)
  br label %200

182:                                              ; preds = %165
  %183 = load ptr, ptr %10, align 8
  %184 = load i32, ptr @hf_mpls_pm_origin_timestamp_ntp, align 4
  %185 = load ptr, ptr %5, align 8
  %186 = load i32, ptr %13, align 4
  %187 = call ptr @proto_tree_add_item(ptr noundef %183, i32 noundef %184, ptr noundef %185, i32 noundef %186, i32 noundef 8, i32 noundef 2)
  br label %200

188:                                              ; preds = %165
  %189 = load ptr, ptr %10, align 8
  %190 = load i32, ptr @hf_mpls_pm_origin_timestamp_ptp, align 4
  %191 = load ptr, ptr %5, align 8
  %192 = load i32, ptr %13, align 4
  %193 = call ptr @proto_tree_add_item(ptr noundef %189, i32 noundef %190, ptr noundef %191, i32 noundef %192, i32 noundef 8, i32 noundef 0)
  br label %200

194:                                              ; preds = %165
  %195 = load ptr, ptr %10, align 8
  %196 = load i32, ptr @hf_mpls_pm_origin_timestamp_unk, align 4
  %197 = load ptr, ptr %5, align 8
  %198 = load i32, ptr %13, align 4
  %199 = call ptr @proto_tree_add_item(ptr noundef %195, i32 noundef %196, ptr noundef %197, i32 noundef %198, i32 noundef 8, i32 noundef 0)
  br label %200

200:                                              ; preds = %194, %188, %182, %176, %170
  %201 = load i32, ptr %13, align 4
  %202 = add i32 %201, 8
  store i32 %202, ptr %13, align 4
  store i8 1, ptr %21, align 1
  br label %203

203:                                              ; preds = %218, %200
  %204 = load i8, ptr %21, align 1
  %205 = zext i8 %204 to i32
  %206 = icmp sle i32 %205, 4
  br i1 %206, label %207, label %221

207:                                              ; preds = %203
  %208 = load ptr, ptr %5, align 8
  %209 = load ptr, ptr %10, align 8
  %210 = load i32, ptr %13, align 4
  %211 = load i8, ptr %14, align 1, !range !6, !noundef !7
  %212 = trunc i8 %211 to i1
  %213 = load i8, ptr %20, align 1, !range !6, !noundef !7
  %214 = trunc i8 %213 to i1
  %215 = load i8, ptr %21, align 1
  call void @mpls_pm_dissect_counter(ptr noundef %208, ptr noundef %209, i32 noundef %210, i1 noundef zeroext %212, i1 noundef zeroext %214, i8 noundef zeroext %215)
  %216 = load i32, ptr %13, align 4
  %217 = add i32 %216, 8
  store i32 %217, ptr %13, align 4
  br label %218

218:                                              ; preds = %207
  %219 = load i8, ptr %21, align 1
  %220 = add i8 %219, 1
  store i8 %220, ptr %21, align 1
  br label %203, !llvm.loop !10

221:                                              ; preds = %203
  store i32 0, ptr %22, align 4
  br label %222

222:                                              ; preds = %221, %30
  call void @llvm.lifetime.end.p0(i64 1, ptr %21) #3
  call void @llvm.lifetime.end.p0(i64 1, ptr %20) #3
  call void @llvm.lifetime.end.p0(i64 1, ptr %19) #3
  call void @llvm.lifetime.end.p0(i64 1, ptr %18) #3
  call void @llvm.lifetime.end.p0(i64 4, ptr %17) #3
  call void @llvm.lifetime.end.p0(i64 1, ptr %16) #3
  call void @llvm.lifetime.end.p0(i64 1, ptr %15) #3
  call void @llvm.lifetime.end.p0(i64 1, ptr %14) #3
  call void @llvm.lifetime.end.p0(i64 4, ptr %13) #3
  call void @llvm.lifetime.end.p0(i64 8, ptr %12) #3
  call void @llvm.lifetime.end.p0(i64 8, ptr %11) #3
  call void @llvm.lifetime.end.p0(i64 8, ptr %10) #3
  call void @llvm.lifetime.end.p0(i64 8, ptr %9) #3
  %223 = load i32, ptr %22, align 4
  switch i32 %223, label %225 [
    i32 0, label %224
    i32 1, label %224
  ]

224:                                              ; preds = %222, %222
  ret void

225:                                              ; preds = %222
  unreachable
}