; Function Attrs: null_pointer_is_valid sspstrong uwtable
define internal fastcc void @dissect_mpls_pm_loss(ptr noundef %0, ptr noundef readonly captures(none) %1, ptr noundef %2, i8 noundef zeroext range(i8 1, 3) %3) unnamed_addr #0 {
  %5 = alloca i8, align 1
  %6 = alloca i8, align 1
  %7 = alloca i8, align 1
  %8 = alloca i32, align 4
  %9 = alloca i8, align 1
  call void @llvm.lifetime.start.p0(i64 1, ptr nonnull %5) #3
  call void @llvm.lifetime.start.p0(i64 1, ptr nonnull %6) #3
  call void @llvm.lifetime.start.p0(i64 1, ptr nonnull %7) #3
  call void @llvm.lifetime.start.p0(i64 4, ptr nonnull %8) #3
  call void @llvm.lifetime.start.p0(i64 1, ptr nonnull %9) #3
  %10 = zext nneg i8 %3 to i32
  %11 = tail call ptr @val_to_str_const(i32 noundef %10, ptr noundef nonnull @pmt_vals, ptr noundef nonnull @.str.121)
  call fastcc void @mpls_pm_build_cinfo(ptr noundef %0, ptr noundef %1, ptr noundef %11, ptr noundef nonnull %5, ptr noundef nonnull %6, ptr noundef nonnull %7, ptr noundef nonnull %8, ptr noundef nonnull %9)
  %.not = icmp eq ptr %2, null
  br i1 %.not, label %.loopexit, label %12

12:                                               ; preds = %4
  %13 = icmp eq i8 %3, 1
  %proto_mpls_pm_dlm.val = load i32, ptr @proto_mpls_pm_dlm, align 4
  %proto_mpls_pm_ilm.val = load i32, ptr @proto_mpls_pm_ilm, align 4
  %14 = select i1 %13, i32 %proto_mpls_pm_dlm.val, i32 %proto_mpls_pm_ilm.val
  %15 = tail call ptr @proto_tree_add_item(ptr noundef nonnull %2, i32 noundef %14, ptr noundef %0, i32 noundef 0, i32 noundef -1, i32 noundef 0)
  %16 = load i32, ptr @ett_mpls_pm, align 4
  %17 = tail call ptr @proto_item_add_subtree(ptr noundef %15, i32 noundef %16)
  %18 = load i32, ptr @hf_mpls_pm_version, align 4
  %19 = tail call ptr @proto_tree_add_item(ptr noundef %17, i32 noundef %18, ptr noundef %0, i32 noundef 0, i32 noundef 1, i32 noundef 0)
  %20 = load i32, ptr @hf_mpls_pm_flags, align 4
  %21 = tail call ptr @proto_tree_add_item(ptr noundef %17, i32 noundef %20, ptr noundef %0, i32 noundef 0, i32 noundef 1, i32 noundef 0)
  %22 = load i32, ptr @ett_mpls_pm_flags, align 4
  %23 = tail call ptr @proto_item_add_subtree(ptr noundef %21, i32 noundef %22)
  %24 = load i32, ptr @hf_mpls_pm_flags_r, align 4
  %25 = tail call ptr @proto_tree_add_item(ptr noundef %23, i32 noundef %24, ptr noundef %0, i32 noundef 0, i32 noundef 1, i32 noundef 0)
  %26 = load i32, ptr @hf_mpls_pm_flags_t, align 4
  %27 = tail call ptr @proto_tree_add_item(ptr noundef %23, i32 noundef %26, ptr noundef %0, i32 noundef 0, i32 noundef 1, i32 noundef 0)
  %28 = load i32, ptr @hf_mpls_pm_flags_res, align 4
  %29 = tail call ptr @proto_tree_add_item(ptr noundef %23, i32 noundef %28, ptr noundef %0, i32 noundef 0, i32 noundef 1, i32 noundef 0)
  %30 = load i8, ptr %5, align 1, !range !6, !noundef !7
  %31 = trunc nuw i8 %30 to i1
  %hf_mpls_pm_query_ctrl_code.val = load i32, ptr @hf_mpls_pm_query_ctrl_code, align 4
  %hf_mpls_pm_response_ctrl_code.val = load i32, ptr @hf_mpls_pm_response_ctrl_code, align 4
  %32 = select i1 %31, i32 %hf_mpls_pm_query_ctrl_code.val, i32 %hf_mpls_pm_response_ctrl_code.val
  %33 = tail call ptr @proto_tree_add_item(ptr noundef %17, i32 noundef %32, ptr noundef %0, i32 noundef 1, i32 noundef 1, i32 noundef 0)
  %34 = load i32, ptr @hf_mpls_pm_length, align 4
  %35 = tail call ptr @proto_tree_add_item(ptr noundef %17, i32 noundef %34, ptr noundef %0, i32 noundef 2, i32 noundef 2, i32 noundef 0)
  %36 = load i32, ptr @hf_mpls_pm_dflags, align 4
  %37 = tail call ptr @proto_tree_add_item(ptr noundef %17, i32 noundef %36, ptr noundef %0, i32 noundef 4, i32 noundef 1, i32 noundef 0)
  %38 = load i32, ptr @ett_mpls_pm_dflags, align 4
  %39 = tail call ptr @proto_item_add_subtree(ptr noundef %37, i32 noundef %38)
  %40 = load i32, ptr @hf_mpls_pm_dflags_x, align 4
  %41 = tail call ptr @proto_tree_add_item(ptr noundef %39, i32 noundef %40, ptr noundef %0, i32 noundef 4, i32 noundef 1, i32 noundef 0)
  %42 = tail call zeroext i8 @tvb_get_uint8(ptr noundef %0, i32 noundef 4)
  %43 = and i8 %42, 64
  %44 = icmp ne i8 %43, 0
  %45 = load i32, ptr @hf_mpls_pm_dflags_b, align 4
  %46 = tail call ptr @proto_tree_add_item(ptr noundef %39, i32 noundef %45, ptr noundef %0, i32 noundef 4, i32 noundef 1, i32 noundef 0)
  %47 = load i32, ptr @hf_mpls_pm_dflags_res, align 4
  %48 = tail call ptr @proto_tree_add_item(ptr noundef %39, i32 noundef %47, ptr noundef %0, i32 noundef 4, i32 noundef 1, i32 noundef 0)
  %49 = tail call zeroext i8 @tvb_get_uint8(ptr noundef %0, i32 noundef 4)
  %50 = and i8 %49, 15
  %51 = load i32, ptr @hf_mpls_pm_otf, align 4
  %52 = tail call ptr @proto_tree_add_item(ptr noundef %17, i32 noundef %51, ptr noundef %0, i32 noundef 4, i32 noundef 1, i32 noundef 0)
  %53 = load i32, ptr @hf_mpls_pm_session_id, align 4
  %54 = load i32, ptr %8, align 4
  %55 = tail call ptr @proto_tree_add_uint(ptr noundef %17, i32 noundef %53, ptr noundef %0, i32 noundef 8, i32 noundef 4, i32 noundef %54)
  %56 = load i8, ptr %7, align 1, !range !6, !noundef !7
  %57 = trunc nuw i8 %56 to i1
  br i1 %57, label %58, label %61

58:                                               ; preds = %12
  %59 = load i32, ptr @hf_mpls_pm_ds, align 4
  %60 = tail call ptr @proto_tree_add_item(ptr noundef %17, i32 noundef %59, ptr noundef %0, i32 noundef 11, i32 noundef 1, i32 noundef 0)
  br label %61

61:                                               ; preds = %58, %12
  %62 = icmp samesign ult i8 %50, 4
  br i1 %62, label %switch.lookup, label %65

switch.lookup:                                    ; preds = %61
  %63 = zext nneg i8 %50 to i64
  %switch.gep = getelementptr inbounds nuw [4 x ptr], ptr @switch.table.dissect_mpls_pm_loss, i64 0, i64 %63
  %switch.load = load ptr, ptr %switch.gep, align 8
  %64 = zext nneg i8 %50 to i64
  %switch.gep97 = getelementptr inbounds nuw [4 x i32], ptr @switch.table.mpls_pm_dissect_timestamp.12, i64 0, i64 %64
  %switch.load98 = load i32, ptr %switch.gep97, align 4
  br label %65

65:                                               ; preds = %61, %switch.lookup
  %hf_mpls_pm_origin_timestamp_unk.sink = phi ptr [ %switch.load, %switch.lookup ], [ @hf_mpls_pm_origin_timestamp_unk, %61 ]
  %.sink96 = phi i32 [ %switch.load98, %switch.lookup ], [ 0, %61 ]
  %66 = load i32, ptr %hf_mpls_pm_origin_timestamp_unk.sink, align 4
  %67 = tail call ptr @proto_tree_add_item(ptr noundef %17, i32 noundef %66, ptr noundef %0, i32 noundef 12, i32 noundef 8, i32 noundef %.sink96)
  br label %68

68:                                               ; preds = %65, %68
  %.095 = phi i8 [ 1, %65 ], [ %70, %68 ]
  %.09294 = phi i32 [ 20, %65 ], [ %69, %68 ]
  tail call fastcc void @mpls_pm_dissect_counter(ptr noundef %0, ptr noundef %17, i32 noundef %.09294, i1 noundef zeroext %31, i1 noundef zeroext %44, i8 noundef zeroext %.095)
  %69 = add nuw nsw i32 %.09294, 8
  %70 = add nuw nsw i8 %.095, 1
  %exitcond.not = icmp eq i8 %70, 5
  br i1 %exitcond.not, label %.loopexit, label %68, !llvm.loop !10

.loopexit:                                        ; preds = %68, %4
  call void @llvm.lifetime.end.p0(i64 1, ptr nonnull %9) #3
  call void @llvm.lifetime.end.p0(i64 4, ptr nonnull %8) #3
  call void @llvm.lifetime.end.p0(i64 1, ptr nonnull %7) #3
  call void @llvm.lifetime.end.p0(i64 1, ptr nonnull %6) #3
  call void @llvm.lifetime.end.p0(i64 1, ptr nonnull %5) #3
  ret void
}